#include <math.h>
#include <stdio.h>
#include <stdlib.h>
#include <string.h>
#include <iostream>
using namespace std;

/*
 * try_second.cpp
 *
 *  Created on: 2012-12-9
 *      Author: ada
 */
int main()
{
	int m , n ;
	cin >> m >> n ;
	int a[100][100] ;
	for(int i = 0 ; i < m ; i++)
	{
		for(int j = 0 ; j < n ; j++)
		{
			cin >> a[i][j] ;
		}
	}
	for(int i = 0 ; i < (m+n) ; i++)
	{
		for(int j = 0 ; j < m ; j++)
		{
			for(int k = 0 ; k <n ; k++)
			{
				if(j+k == i)
				{
					cout << a[j][k] <<endl ;
				}
			}
		}
	}
	return 0 ;
}
