; ModuleID = 'source-C-CXX/3/877.cpp'
source_filename = "source-C-CXX/3/877.cpp"
target datalayout = "e-m:e-p270:32:32-p271:32:32-p272:64:64-i64:64-f80:128-n8:16:32:64-S128"
target triple = "x86_64-pc-linux-gnu"

%"class.std::ios_base::Init" = type { i8 }
%"class.std::basic_istream" = type { i32 (...)**, i64, %"class.std::basic_ios" }
%"class.std::basic_ios" = type { %"class.std::ios_base", %"class.std::basic_ostream"*, i8, i8, %"class.std::basic_streambuf"*, %"class.std::ctype"*, %"class.std::num_put"*, %"class.std::num_get"* }
%"class.std::ios_base" = type { i32 (...)**, i64, i64, i32, i32, i32, %"struct.std::ios_base::_Callback_list"*, %"struct.std::ios_base::_Words", [8 x %"struct.std::ios_base::_Words"], i32, %"struct.std::ios_base::_Words"*, %"class.std::locale" }
%"struct.std::ios_base::_Callback_list" = type { %"struct.std::ios_base::_Callback_list"*, void (i32, %"class.std::ios_base"*, i32)*, i32, i32 }
%"struct.std::ios_base::_Words" = type { i8*, i64 }
%"class.std::locale" = type { %"class.std::locale::_Impl"* }
%"class.std::locale::_Impl" = type { i32, %"class.std::locale::facet"**, i64, %"class.std::locale::facet"**, i8** }
%"class.std::locale::facet" = type <{ i32 (...)**, i32, [4 x i8] }>
%"class.std::basic_ostream" = type { i32 (...)**, %"class.std::basic_ios" }
%"class.std::basic_streambuf" = type { i32 (...)**, i8*, i8*, i8*, i8*, i8*, i8*, %"class.std::locale" }
%"class.std::ctype" = type <{ %"class.std::locale::facet.base", [4 x i8], %struct.__locale_struct*, i8, [7 x i8], i32*, i32*, i16*, i8, [256 x i8], [256 x i8], i8, [6 x i8] }>
%"class.std::locale::facet.base" = type <{ i32 (...)**, i32 }>
%struct.__locale_struct = type { [13 x %struct.__locale_data*], i16*, i32*, i32*, [13 x i8*] }
%struct.__locale_data = type opaque
%"class.std::num_put" = type { %"class.std::locale::facet.base", [4 x i8] }
%"class.std::num_get" = type { %"class.std::locale::facet.base", [4 x i8] }

@_ZStL8__ioinit = internal global %"class.std::ios_base::Init" zeroinitializer, align 1
@__dso_handle = external hidden global i8
@_ZSt3cin = external global %"class.std::basic_istream", align 8
@_ZSt4cout = external global %"class.std::basic_ostream", align 8
@llvm.global_ctors = appending global [1 x { i32, void ()*, i8* }] [{ i32, void ()*, i8* } { i32 65535, void ()* @_GLOBAL__sub_I_877.cpp, i8* null }]

declare void @_ZNSt8ios_base4InitC1Ev(%"class.std::ios_base::Init"* nonnull align 1 dereferenceable(1)) unnamed_addr #0

; Function Attrs: nounwind
declare void @_ZNSt8ios_base4InitD1Ev(%"class.std::ios_base::Init"* nonnull align 1 dereferenceable(1)) unnamed_addr #1

; Function Attrs: nofree nounwind
declare i32 @__cxa_atexit(void (i8*)*, i8*, i8*) local_unnamed_addr #2

; Function Attrs: mustprogress norecurse sspstrong uwtable
define dso_local i32 @main() local_unnamed_addr #3 {
  %1 = alloca i32, align 4
  %2 = alloca i32, align 4
  %3 = alloca [100 x [100 x i32]], align 16
  %4 = bitcast i32* %1 to i8*
  call void @llvm.lifetime.start.p0i8(i64 4, i8* nonnull %4) #7
  %5 = bitcast i32* %2 to i8*
  call void @llvm.lifetime.start.p0i8(i64 4, i8* nonnull %5) #7
  %6 = call nonnull align 8 dereferenceable(16) %"class.std::basic_istream"* @_ZNSirsERi(%"class.std::basic_istream"* nonnull align 8 dereferenceable(16) @_ZSt3cin, i32* nonnull align 4 dereferenceable(4) %1)
  %7 = call nonnull align 8 dereferenceable(16) %"class.std::basic_istream"* @_ZNSirsERi(%"class.std::basic_istream"* nonnull align 8 dereferenceable(16) %6, i32* nonnull align 4 dereferenceable(4) %2)
  %8 = bitcast [100 x [100 x i32]]* %3 to i8*
  call void @llvm.lifetime.start.p0i8(i64 40000, i8* nonnull %8) #7
  %9 = load i32, i32* %1, align 4, !tbaa !5
  %10 = icmp sgt i32 %9, 0
  %11 = load i32, i32* %2, align 4, !tbaa !5
  %12 = icmp sgt i32 %11, 0
  %13 = select i1 %10, i1 %12, i1 false
  br i1 %13, label %14, label %19

14:                                               ; preds = %0, %28
  %15 = phi i32 [ %29, %28 ], [ %9, %0 ]
  %16 = phi i32 [ %30, %28 ], [ %11, %0 ]
  %17 = phi i64 [ %31, %28 ], [ 0, %0 ]
  %18 = icmp sgt i32 %16, 0
  br i1 %18, label %34, label %28

19:                                               ; preds = %28, %0
  %20 = phi i32 [ %11, %0 ], [ %30, %28 ]
  %21 = phi i32 [ %9, %0 ], [ %29, %28 ]
  %22 = add nsw i32 %20, %21
  %23 = icmp sgt i32 %22, 0
  %24 = icmp sgt i32 %21, 0
  %25 = and i1 %23, %24
  br i1 %25, label %42, label %49

26:                                               ; preds = %34
  %27 = load i32, i32* %1, align 4, !tbaa !5
  br label %28

28:                                               ; preds = %26, %14
  %29 = phi i32 [ %27, %26 ], [ %15, %14 ]
  %30 = phi i32 [ %39, %26 ], [ %16, %14 ]
  %31 = add nuw nsw i64 %17, 1
  %32 = sext i32 %29 to i64
  %33 = icmp slt i64 %31, %32
  br i1 %33, label %14, label %19, !llvm.loop !9

34:                                               ; preds = %14, %34
  %35 = phi i64 [ %38, %34 ], [ 0, %14 ]
  %36 = getelementptr inbounds [100 x [100 x i32]], [100 x [100 x i32]]* %3, i64 0, i64 %17, i64 %35
  %37 = call nonnull align 8 dereferenceable(16) %"class.std::basic_istream"* @_ZNSirsERi(%"class.std::basic_istream"* nonnull align 8 dereferenceable(16) @_ZSt3cin, i32* nonnull align 4 dereferenceable(4) %36)
  %38 = add nuw nsw i64 %35, 1
  %39 = load i32, i32* %2, align 4, !tbaa !5
  %40 = sext i32 %39 to i64
  %41 = icmp slt i64 %38, %40
  br i1 %41, label %34, label %26, !llvm.loop !12

42:                                               ; preds = %19, %58
  %43 = phi i32 [ %59, %58 ], [ %20, %19 ]
  %44 = phi i32 [ %60, %58 ], [ %21, %19 ]
  %45 = phi i64 [ %61, %58 ], [ 0, %19 ]
  %46 = icmp sgt i32 %44, 0
  %47 = icmp sgt i32 %43, 0
  %48 = select i1 %46, i1 %47, i1 false
  br i1 %48, label %50, label %58

49:                                               ; preds = %58, %19
  call void @llvm.lifetime.end.p0i8(i64 40000, i8* nonnull %8) #7
  call void @llvm.lifetime.end.p0i8(i64 4, i8* nonnull %5) #7
  call void @llvm.lifetime.end.p0i8(i64 4, i8* nonnull %4) #7
  ret i32 0

50:                                               ; preds = %42, %67
  %51 = phi i32 [ %68, %67 ], [ %43, %42 ]
  %52 = phi i32 [ %69, %67 ], [ %44, %42 ]
  %53 = phi i32 [ %70, %67 ], [ %44, %42 ]
  %54 = phi i32 [ %71, %67 ], [ %43, %42 ]
  %55 = phi i32 [ %72, %67 ], [ %43, %42 ]
  %56 = phi i64 [ %73, %67 ], [ 0, %42 ]
  %57 = icmp sgt i32 %55, 0
  br i1 %57, label %76, label %67

58:                                               ; preds = %67, %42
  %59 = phi i32 [ %43, %42 ], [ %68, %67 ]
  %60 = phi i32 [ %44, %42 ], [ %69, %67 ]
  %61 = add nuw nsw i64 %45, 1
  %62 = add nsw i32 %59, %60
  %63 = sext i32 %62 to i64
  %64 = icmp slt i64 %61, %63
  br i1 %64, label %42, label %49, !llvm.loop !13

65:                                               ; preds = %116
  %66 = load i32, i32* %1, align 4, !tbaa !5
  br label %67

67:                                               ; preds = %65, %50
  %68 = phi i32 [ %117, %65 ], [ %51, %50 ]
  %69 = phi i32 [ %66, %65 ], [ %52, %50 ]
  %70 = phi i32 [ %66, %65 ], [ %53, %50 ]
  %71 = phi i32 [ %118, %65 ], [ %54, %50 ]
  %72 = phi i32 [ %118, %65 ], [ %55, %50 ]
  %73 = add nuw nsw i64 %56, 1
  %74 = sext i32 %70 to i64
  %75 = icmp slt i64 %73, %74
  br i1 %75, label %50, label %58, !llvm.loop !14

76:                                               ; preds = %50, %116
  %77 = phi i32 [ %117, %116 ], [ %51, %50 ]
  %78 = phi i32 [ %118, %116 ], [ %54, %50 ]
  %79 = phi i64 [ %119, %116 ], [ 0, %50 ]
  %80 = add nuw nsw i64 %79, %56
  %81 = icmp eq i64 %80, %45
  br i1 %81, label %82, label %116

82:                                               ; preds = %76
  %83 = getelementptr inbounds [100 x [100 x i32]], [100 x [100 x i32]]* %3, i64 0, i64 %56, i64 %79
  %84 = load i32, i32* %83, align 4, !tbaa !5
  %85 = call nonnull align 8 dereferenceable(8) %"class.std::basic_ostream"* @_ZNSolsEi(%"class.std::basic_ostream"* nonnull align 8 dereferenceable(8) @_ZSt4cout, i32 %84)
  %86 = bitcast %"class.std::basic_ostream"* %85 to i8**
  %87 = load i8*, i8** %86, align 8, !tbaa !15
  %88 = getelementptr i8, i8* %87, i64 -24
  %89 = bitcast i8* %88 to i64*
  %90 = load i64, i64* %89, align 8
  %91 = bitcast %"class.std::basic_ostream"* %85 to i8*
  %92 = add nsw i64 %90, 240
  %93 = getelementptr inbounds i8, i8* %91, i64 %92
  %94 = bitcast i8* %93 to %"class.std::ctype"**
  %95 = load %"class.std::ctype"*, %"class.std::ctype"** %94, align 8, !tbaa !17
  %96 = icmp eq %"class.std::ctype"* %95, null
  br i1 %96, label %97, label %98

97:                                               ; preds = %82
  call void @_ZSt16__throw_bad_castv() #8
  unreachable

98:                                               ; preds = %82
  %99 = getelementptr inbounds %"class.std::ctype", %"class.std::ctype"* %95, i64 0, i32 8
  %100 = load i8, i8* %99, align 8, !tbaa !21
  %101 = icmp eq i8 %100, 0
  br i1 %101, label %105, label %102

102:                                              ; preds = %98
  %103 = getelementptr inbounds %"class.std::ctype", %"class.std::ctype"* %95, i64 0, i32 9, i64 10
  %104 = load i8, i8* %103, align 1, !tbaa !23
  br label %111

105:                                              ; preds = %98
  call void @_ZNKSt5ctypeIcE13_M_widen_initEv(%"class.std::ctype"* nonnull align 8 dereferenceable(570) %95)
  %106 = bitcast %"class.std::ctype"* %95 to i8 (%"class.std::ctype"*, i8)***
  %107 = load i8 (%"class.std::ctype"*, i8)**, i8 (%"class.std::ctype"*, i8)*** %106, align 8, !tbaa !15
  %108 = getelementptr inbounds i8 (%"class.std::ctype"*, i8)*, i8 (%"class.std::ctype"*, i8)** %107, i64 6
  %109 = load i8 (%"class.std::ctype"*, i8)*, i8 (%"class.std::ctype"*, i8)** %108, align 8
  %110 = call signext i8 %109(%"class.std::ctype"* nonnull align 8 dereferenceable(570) %95, i8 signext 10)
  br label %111

111:                                              ; preds = %102, %105
  %112 = phi i8 [ %104, %102 ], [ %110, %105 ]
  %113 = call nonnull align 8 dereferenceable(8) %"class.std::basic_ostream"* @_ZNSo3putEc(%"class.std::basic_ostream"* nonnull align 8 dereferenceable(8) %85, i8 signext %112)
  %114 = call nonnull align 8 dereferenceable(8) %"class.std::basic_ostream"* @_ZNSo5flushEv(%"class.std::basic_ostream"* nonnull align 8 dereferenceable(8) %113)
  %115 = load i32, i32* %2, align 4, !tbaa !5
  br label %116

116:                                              ; preds = %76, %111
  %117 = phi i32 [ %77, %76 ], [ %115, %111 ]
  %118 = phi i32 [ %78, %76 ], [ %115, %111 ]
  %119 = add nuw nsw i64 %79, 1
  %120 = sext i32 %118 to i64
  %121 = icmp slt i64 %119, %120
  br i1 %121, label %76, label %65, !llvm.loop !24
}

; Function Attrs: argmemonly mustprogress nofree nosync nounwind willreturn
declare void @llvm.lifetime.start.p0i8(i64 immarg, i8* nocapture) #4

declare nonnull align 8 dereferenceable(16) %"class.std::basic_istream"* @_ZNSirsERi(%"class.std::basic_istream"* nonnull align 8 dereferenceable(16), i32* nonnull align 4 dereferenceable(4)) local_unnamed_addr #0

; Function Attrs: argmemonly mustprogress nofree nosync nounwind willreturn
declare void @llvm.lifetime.end.p0i8(i64 immarg, i8* nocapture) #4

declare nonnull align 8 dereferenceable(8) %"class.std::basic_ostream"* @_ZNSolsEi(%"class.std::basic_ostream"* nonnull align 8 dereferenceable(8), i32) local_unnamed_addr #0

declare nonnull align 8 dereferenceable(8) %"class.std::basic_ostream"* @_ZNSo3putEc(%"class.std::basic_ostream"* nonnull align 8 dereferenceable(8), i8 signext) local_unnamed_addr #0

declare nonnull align 8 dereferenceable(8) %"class.std::basic_ostream"* @_ZNSo5flushEv(%"class.std::basic_ostream"* nonnull align 8 dereferenceable(8)) local_unnamed_addr #0

; Function Attrs: noreturn
declare void @_ZSt16__throw_bad_castv() local_unnamed_addr #5

declare void @_ZNKSt5ctypeIcE13_M_widen_initEv(%"class.std::ctype"* nonnull align 8 dereferenceable(570)) local_unnamed_addr #0

; Function Attrs: sspstrong uwtable
define internal void @_GLOBAL__sub_I_877.cpp() #6 section ".text.startup" {
  tail call void @_ZNSt8ios_base4InitC1Ev(%"class.std::ios_base::Init"* nonnull align 1 dereferenceable(1) @_ZStL8__ioinit)
  %1 = tail call i32 @__cxa_atexit(void (i8*)* bitcast (void (%"class.std::ios_base::Init"*)* @_ZNSt8ios_base4InitD1Ev to void (i8*)*), i8* getelementptr inbounds (%"class.std::ios_base::Init", %"class.std::ios_base::Init"* @_ZStL8__ioinit, i64 0, i32 0), i8* nonnull @__dso_handle) #7
  ret void
}


!llvm.module.flags = !{!0, !1, !2, !3}
!llvm.ident = !{!4}

!0 = !{i32 1, !"wchar_size", i32 4}
!1 = !{i32 7, !"PIC Level", i32 2}
!2 = !{i32 7, !"PIE Level", i32 2}
!3 = !{i32 7, !"uwtable", i32 1}
!4 = !{!"clang version 13.0.0"}
!5 = !{!6, !6, i64 0}
!6 = !{!"int", !7, i64 0}
!7 = !{!"omnipotent char", !8, i64 0}
!8 = !{!"Simple C++ TBAA"}
!9 = distinct !{!9, !10, !11}
!10 = !{!"llvm.loop.mustprogress"}
!11 = !{!"llvm.loop.unswitch.partial.disable"}
!12 = distinct !{!12, !10}
!13 = distinct !{!13, !10, !11}
!14 = distinct !{!14, !10, !11}
!15 = !{!16, !16, i64 0}
!16 = !{!"vtable pointer", !8, i64 0}
!17 = !{!18, !19, i64 240}
!18 = !{!"_ZTSSt9basic_iosIcSt11char_traitsIcEE", !19, i64 216, !7, i64 224, !20, i64 225, !19, i64 232, !19, i64 240, !19, i64 248, !19, i64 256}
!19 = !{!"any pointer", !7, i64 0}
!20 = !{!"bool", !7, i64 0}
!21 = !{!22, !7, i64 56}
!22 = !{!"_ZTSSt5ctypeIcE", !19, i64 16, !20, i64 24, !19, i64 32, !19, i64 40, !19, i64 48, !7, i64 56, !7, i64 57, !7, i64 313, !7, i64 569}
!23 = !{!7, !7, i64 0}
!24 = distinct !{!24, !10}
